(dp0
I15
I1049671
sI16
I480602
sI17
I307111
sI18
I103437
sI19
I102599
sI20
I379847
sI21
I136668
sI22
I57461
sI23
I42396
sI24
I13935
sI25
I7695
sI26
I3606
sI27
I54615
sI28
I30815
sI29
I28108
sI30
I19146
sI31
I11539
sI32
I4666
sI33
I5292
sI34
I14903
sI35
I11822
sI36
I6580
sI37
I4102
sI38
I1286
sI39
I1728
sI40
I13645
sI41
I10681
sI42
I6512
sI43
I5908
sI44
I2966
sI45
I2102
sI46
I1662
sI47
I10750
sI48
I7765
sI49
I20082
sI50
I536713
s.