(dp0
I15
I2577244
sI16
I905099
sI17
I555809
sI18
I100161
sI19
I147508
sI20
I591064
sI21
I252914
sI22
I71115
sI23
I62764
sI24
I24102
sI25
I96892
sI26
I39010
sI27
I37000
sI28
I7543
sI29
I12938
sI30
I31780
sI31
I29242
sI32
I10648
sI33
I10034
sI34
I4566
sI35
I21735
sI36
I9110
sI37
I8182
sI38
I2254
sI39
I3881
sI40
I10203
sI41
I10069
sI42
I3847
sI43
I3399
sI44
I1713
sI45
I8653
sI46
I4193
sI47
I3992
sI48
I1147
sI49
I30290
sI50
I645721
s.