(dp0
I20
I1065858
sI21
I373606
sI22
I136953
sI23
I83356
sI24
I41891
sI25
I146885
sI26
I68787
sI27
I45135
sI28
I10513
sI29
I13939
sI30
I74320
sI31
I48328
sI32
I23181
sI33
I14701
sI34
I8733
sI35
I37098
sI36
I18447
sI37
I11564
sI38
I3408
sI39
I4589
sI40
I27020
sI41
I18547
sI42
I8959
sI43
I5825
sI44
I3605
sI45
I16873
sI46
I9719
sI47
I6530
sI48
I5191
sI49
I48333
sI50
I993220
s.