(dp0
I20
I1110835
sI21
I383693
sI22
I141021
sI23
I84413
sI24
I42271
sI25
I164250
sI26
I76202
sI27
I50371
sI28
I12328
sI29
I15599
sI30
I81283
sI31
I51600
sI32
I24691
sI33
I15254
sI34
I9112
sI35
I41291
sI36
I20885
sI37
I13237
sI38
I4099
sI39
I5106
sI40
I30031
sI41
I20325
sI42
I9817
sI43
I6094
sI44
I3812
sI45
I19383
sI46
I11357
sI47
I8134
sI48
I6296
sI49
I52126
sI50
I1064081
s.