(dp0
I15
I177971
sI16
I78744
sI17
I45161
sI18
I7503
sI19
I19687
sI20
I197035
sI21
I72399
sI22
I31720
sI23
I31907
sI24
I17444
sI25
I16652
sI26
I8715
sI27
I8710
sI28
I3598
sI29
I3894
sI30
I12397
sI31
I10536
sI32
I7118
sI33
I6859
sI34
I4334
sI35
I3555
sI36
I2283
sI37
I1399
sI38
I572
sI39
I629
sI40
I4989
sI41
I4811
sI42
I3814
sI43
I4103
sI44
I2618
sI45
I2453
sI46
I1495
sI47
I1368
sI48
I958
sI49
I5342
sI50
I366228
s.