(dp0
I20
I282425
sI21
I119425
sI22
I43565
sI23
I38814
sI24
I11894
sI25
I9219
sI26
I3819
sI27
I41203
sI28
I18915
sI29
I21278
sI30
I11806
sI31
I8756
sI32
I3002
sI33
I4352
sI34
I9660
sI35
I8695
sI36
I4505
sI37
I3656
sI38
I1167
sI39
I1818
sI40
I7372
sI41
I7304
sI42
I3639
sI43
I3865
sI44
I1657
sI45
I1540
sI46
I876
sI47
I7326
sI48
I4019
sI49
I14108
sI50
I429803
s.