(dp0
I20
I395958
sI21
I142272
sI22
I60027
sI23
I44946
sI24
I14995
sI25
I8607
sI26
I4097
sI27
I56379
sI28
I31980
sI29
I28859
sI30
I19571
sI31
I11643
sI32
I4648
sI33
I5288
sI34
I15689
sI35
I12679
sI36
I7023
sI37
I4439
sI38
I1439
sI39
I1857
sI40
I14398
sI41
I11226
sI42
I6928
sI43
I6125
sI44
I3101
sI45
I2121
sI46
I1708
sI47
I11698
sI48
I8569
sI49
I21196
sI50
I554638
s.