(dp0
I15
I177981
sI16
I78753
sI17
I45166
sI18
I7506
sI19
I19693
sI20
I197058
sI21
I72413
sI22
I31732
sI23
I31933
sI24
I17470
sI25
I16747
sI26
I8818
sI27
I8881
sI28
I3677
sI29
I4009
sI30
I12049
sI31
I10269
sI32
I6971
sI33
I6658
sI34
I4226
sI35
I3418
sI36
I2198
sI37
I1336
sI38
I524
sI39
I607
sI40
I4845
sI41
I4709
sI42
I3689
sI43
I4008
sI44
I2565
sI45
I2368
sI46
I1473
sI47
I1284
sI48
I906
sI49
I5212
sI50
I359352
s.